target datalayout = "e-m:e-p270:32:32-p271:32:32-p272:64:64-i64:64-i128:128-f80:128-n8:16:32:64-S128"
target triple = "x86_64-pc-linux-gnu"

%"class.Luau::CodeGen::X64::AssemblyBuilderX64" = type <{ %"class.std::vector", %"class.std::vector", %"class.std::__cxx11::basic_string", i8, [3 x i8], i32, i32, [4 x i8], %"class.std::vector.3", %"class.std::vector.8", %"class.Luau::DenseHashMap", %"class.Luau::DenseHashMap.13", i8, [7 x i8], i64, ptr, ptr, i32, [4 x i8] }>
%"class.std::vector" = type { %"struct.std::_Vector_base" }
%"struct.std::_Vector_base" = type { %"struct.std::_Vector_base<unsigned char, std::allocator<unsigned char>>::_Vector_impl" }
%"struct.std::_Vector_base<unsigned char, std::allocator<unsigned char>>::_Vector_impl" = type { %"struct.std::_Vector_base<unsigned char, std::allocator<unsigned char>>::_Vector_impl_data" }
%"struct.std::_Vector_base<unsigned char, std::allocator<unsigned char>>::_Vector_impl_data" = type { ptr, ptr, ptr }
%"class.std::__cxx11::basic_string" = type { %"struct.std::__cxx11::basic_string<char>::_Alloc_hider", i64, %union.anon }
%"struct.std::__cxx11::basic_string<char>::_Alloc_hider" = type { ptr }
%union.anon = type { i64, [8 x i8] }
%"class.std::vector.3" = type { %"struct.std::_Vector_base.4" }
%"struct.std::_Vector_base.4" = type { %"struct.std::_Vector_base<Luau::CodeGen::Label, std::allocator<Luau::CodeGen::Label>>::_Vector_impl" }
%"struct.std::_Vector_base<Luau::CodeGen::Label, std::allocator<Luau::CodeGen::Label>>::_Vector_impl" = type { %"struct.std::_Vector_base<Luau::CodeGen::Label, std::allocator<Luau::CodeGen::Label>>::_Vector_impl_data" }
%"struct.std::_Vector_base<Luau::CodeGen::Label, std::allocator<Luau::CodeGen::Label>>::_Vector_impl_data" = type { ptr, ptr, ptr }
%"class.std::vector.8" = type { %"struct.std::_Vector_base.9" }
%"struct.std::_Vector_base.9" = type { %"struct.std::_Vector_base<unsigned int, std::allocator<unsigned int>>::_Vector_impl" }
%"struct.std::_Vector_base<unsigned int, std::allocator<unsigned int>>::_Vector_impl" = type { %"struct.std::_Vector_base<unsigned int, std::allocator<unsigned int>>::_Vector_impl_data" }
%"struct.std::_Vector_base<unsigned int, std::allocator<unsigned int>>::_Vector_impl_data" = type { ptr, ptr, ptr }
%"class.Luau::DenseHashMap" = type { %"class.Luau::detail::DenseHashTable" }
%"class.Luau::detail::DenseHashTable" = type <{ ptr, i64, i64, i32, [4 x i8] }>
%"class.Luau::DenseHashMap.13" = type { %"class.Luau::detail::DenseHashTable.14" }
%"class.Luau::detail::DenseHashTable.14" = type <{ ptr, i64, i64, i64, [8 x i8] }>
%"struct.Luau::CodeGen::Label" = type { i32, i32 }
%"struct.Luau::CodeGen::ModuleHelpers" = type { %"struct.Luau::CodeGen::Label", %"struct.Luau::CodeGen::Label", %"struct.Luau::CodeGen::Label", %"struct.Luau::CodeGen::Label", %"struct.Luau::CodeGen::Label", %"struct.Luau::CodeGen::Label", %"struct.Luau::CodeGen::Label" }

@.str = private unnamed_addr constant [27 x i8] c"; updatePcAndContinueInVm\0A\00", align 1
@.str.1 = private unnamed_addr constant [33 x i8] c"; exitContinueVmClearNativeFlag\0A\00", align 1
@.str.2 = private unnamed_addr constant [18 x i8] c"; exitContinueVm\0A\00", align 1
@.str.3 = private unnamed_addr constant [20 x i8] c"; exitNoContinueVm\0A\00", align 1
@.str.4 = private unnamed_addr constant [13 x i8] c"; interrupt\0A\00", align 1
@.str.5 = private unnamed_addr constant [10 x i8] c"; return\0A\00", align 1

; Function Attrs: mustprogress uwtable
define dso_local void @_ZN4Luau7CodeGen3X6415assembleHelpersERNS1_18AssemblyBuilderX64ERNS0_13ModuleHelpersE(ptr noundef nonnull align 8 dereferenceable(252) %0, ptr noundef nonnull align 4 dereferenceable(56) %1) #0 {
  %3 = alloca ptr, align 8
  %4 = alloca ptr, align 8
  store ptr %0, ptr %3, align 8, !tbaa !39
  store ptr %1, ptr %4, align 8, !tbaa !93
  %5 = load ptr, ptr %3, align 8, !tbaa !39
  %6 = getelementptr inbounds nuw %"class.Luau::CodeGen::X64::AssemblyBuilderX64", ptr %5, i32 0, i32 3
  %7 = load i8, ptr %6, align 8, !tbaa !95, !range !96, !noundef !97
  %8 = trunc i8 %7 to i1
  br i1 %8, label %9, label %11

9:                                                ; preds = %2
  %10 = load ptr, ptr %3, align 8, !tbaa !39
  call void (ptr, ptr, ...) @_ZN4Luau7CodeGen3X6418AssemblyBuilderX649logAppendEPKcz(ptr noundef nonnull align 8 dereferenceable(252) %10, ptr noundef @.str)
  br label %11

11:                                               ; preds = %9, %2
  %12 = load ptr, ptr %3, align 8, !tbaa !39
  %13 = load ptr, ptr %4, align 8, !tbaa !93
  %14 = getelementptr inbounds nuw %"struct.Luau::CodeGen::ModuleHelpers", ptr %13, i32 0, i32 3
  call void @_ZN4Luau7CodeGen3X6418AssemblyBuilderX648setLabelERNS0_5LabelE(ptr noundef nonnull align 8 dereferenceable(252) %12, ptr noundef nonnull align 4 dereferenceable(8) %14)
  %15 = load ptr, ptr %3, align 8, !tbaa !39
  call void @_ZN4Luau7CodeGen3X6419emitUpdatePcForExitERNS1_18AssemblyBuilderX64E(ptr noundef nonnull align 8 dereferenceable(252) %15)
  %16 = load ptr, ptr %3, align 8, !tbaa !39
  %17 = getelementptr inbounds nuw %"class.Luau::CodeGen::X64::AssemblyBuilderX64", ptr %16, i32 0, i32 3
  %18 = load i8, ptr %17, align 8, !tbaa !95, !range !96, !noundef !97
  %19 = trunc i8 %18 to i1
  br i1 %19, label %20, label %22

20:                                               ; preds = %11
  %21 = load ptr, ptr %3, align 8, !tbaa !39
  call void (ptr, ptr, ...) @_ZN4Luau7CodeGen3X6418AssemblyBuilderX649logAppendEPKcz(ptr noundef nonnull align 8 dereferenceable(252) %21, ptr noundef @.str.1)
  br label %22

22:                                               ; preds = %20, %11
  %23 = load ptr, ptr %3, align 8, !tbaa !39
  %24 = load ptr, ptr %4, align 8, !tbaa !93
  %25 = getelementptr inbounds nuw %"struct.Luau::CodeGen::ModuleHelpers", ptr %24, i32 0, i32 2
  call void @_ZN4Luau7CodeGen3X6418AssemblyBuilderX648setLabelERNS0_5LabelE(ptr noundef nonnull align 8 dereferenceable(252) %23, ptr noundef nonnull align 4 dereferenceable(8) %25)
  %26 = load ptr, ptr %3, align 8, !tbaa !39
  call void @_ZN4Luau7CodeGen3X6419emitClearNativeFlagERNS1_18AssemblyBuilderX64E(ptr noundef nonnull align 8 dereferenceable(252) %26)
  %27 = load ptr, ptr %3, align 8, !tbaa !39
  %28 = getelementptr inbounds nuw %"class.Luau::CodeGen::X64::AssemblyBuilderX64", ptr %27, i32 0, i32 3
  %29 = load i8, ptr %28, align 8, !tbaa !95, !range !96, !noundef !97
  %30 = trunc i8 %29 to i1
  br i1 %30, label %31, label %33

31:                                               ; preds = %22
  %32 = load ptr, ptr %3, align 8, !tbaa !39
  call void (ptr, ptr, ...) @_ZN4Luau7CodeGen3X6418AssemblyBuilderX649logAppendEPKcz(ptr noundef nonnull align 8 dereferenceable(252) %32, ptr noundef @.str.2)
  br label %33

33:                                               ; preds = %31, %22
  %34 = load ptr, ptr %3, align 8, !tbaa !39
  %35 = load ptr, ptr %4, align 8, !tbaa !93
  %36 = getelementptr inbounds nuw %"struct.Luau::CodeGen::ModuleHelpers", ptr %35, i32 0, i32 0
  call void @_ZN4Luau7CodeGen3X6418AssemblyBuilderX648setLabelERNS0_5LabelE(ptr noundef nonnull align 8 dereferenceable(252) %34, ptr noundef nonnull align 4 dereferenceable(8) %36)
  %37 = load ptr, ptr %3, align 8, !tbaa !39
  call void @_ZN4Luau7CodeGen3X648emitExitERNS1_18AssemblyBuilderX64Eb(ptr noundef nonnull align 8 dereferenceable(252) %37, i1 noundef zeroext true)
  %38 = load ptr, ptr %3, align 8, !tbaa !39
  %39 = getelementptr inbounds nuw %"class.Luau::CodeGen::X64::AssemblyBuilderX64", ptr %38, i32 0, i32 3
  %40 = load i8, ptr %39, align 8, !tbaa !95, !range !96, !noundef !97
  %41 = trunc i8 %40 to i1
  br i1 %41, label %42, label %44

42:                                               ; preds = %33
  %43 = load ptr, ptr %3, align 8, !tbaa !39
  call void (ptr, ptr, ...) @_ZN4Luau7CodeGen3X6418AssemblyBuilderX649logAppendEPKcz(ptr noundef nonnull align 8 dereferenceable(252) %43, ptr noundef @.str.3)
  br label %44

44:                                               ; preds = %42, %33
  %45 = load ptr, ptr %3, align 8, !tbaa !39
  %46 = load ptr, ptr %4, align 8, !tbaa !93
  %47 = getelementptr inbounds nuw %"struct.Luau::CodeGen::ModuleHelpers", ptr %46, i32 0, i32 1
  call void @_ZN4Luau7CodeGen3X6418AssemblyBuilderX648setLabelERNS0_5LabelE(ptr noundef nonnull align 8 dereferenceable(252) %45, ptr noundef nonnull align 4 dereferenceable(8) %47)
  %48 = load ptr, ptr %3, align 8, !tbaa !39
  call void @_ZN4Luau7CodeGen3X648emitExitERNS1_18AssemblyBuilderX64Eb(ptr noundef nonnull align 8 dereferenceable(252) %48, i1 noundef zeroext false)
  %49 = load ptr, ptr %3, align 8, !tbaa !39
  %50 = getelementptr inbounds nuw %"class.Luau::CodeGen::X64::AssemblyBuilderX64", ptr %49, i32 0, i32 3
  %51 = load i8, ptr %50, align 8, !tbaa !95, !range !96, !noundef !97
  %52 = trunc i8 %51 to i1
  br i1 %52, label %53, label %55

53:                                               ; preds = %44
  %54 = load ptr, ptr %3, align 8, !tbaa !39
  call void (ptr, ptr, ...) @_ZN4Luau7CodeGen3X6418AssemblyBuilderX649logAppendEPKcz(ptr noundef nonnull align 8 dereferenceable(252) %54, ptr noundef @.str.4)
  br label %55

55:                                               ; preds = %53, %44
  %56 = load ptr, ptr %3, align 8, !tbaa !39
  %57 = load ptr, ptr %4, align 8, !tbaa !93
  %58 = getelementptr inbounds nuw %"struct.Luau::CodeGen::ModuleHelpers", ptr %57, i32 0, i32 5
  call void @_ZN4Luau7CodeGen3X6418AssemblyBuilderX648setLabelERNS0_5LabelE(ptr noundef nonnull align 8 dereferenceable(252) %56, ptr noundef nonnull align 4 dereferenceable(8) %58)
  %59 = load ptr, ptr %3, align 8, !tbaa !39
  call void @_ZN4Luau7CodeGen3X6413emitInterruptERNS1_18AssemblyBuilderX64E(ptr noundef nonnull align 8 dereferenceable(252) %59)
  %60 = load ptr, ptr %3, align 8, !tbaa !39
  %61 = getelementptr inbounds nuw %"class.Luau::CodeGen::X64::AssemblyBuilderX64", ptr %60, i32 0, i32 3
  %62 = load i8, ptr %61, align 8, !tbaa !95, !range !96, !noundef !97
  %63 = trunc i8 %62 to i1
  br i1 %63, label %64, label %66

64:                                               ; preds = %55
  %65 = load ptr, ptr %3, align 8, !tbaa !39
  call void (ptr, ptr, ...) @_ZN4Luau7CodeGen3X6418AssemblyBuilderX649logAppendEPKcz(ptr noundef nonnull align 8 dereferenceable(252) %65, ptr noundef @.str.5)
  br label %66

66:                                               ; preds = %64, %55
  %67 = load ptr, ptr %3, align 8, !tbaa !39
  %68 = load ptr, ptr %4, align 8, !tbaa !93
  %69 = getelementptr inbounds nuw %"struct.Luau::CodeGen::ModuleHelpers", ptr %68, i32 0, i32 4
  call void @_ZN4Luau7CodeGen3X6418AssemblyBuilderX648setLabelERNS0_5LabelE(ptr noundef nonnull align 8 dereferenceable(252) %67, ptr noundef nonnull align 4 dereferenceable(8) %69)
  %70 = load ptr, ptr %3, align 8, !tbaa !39
  %71 = load ptr, ptr %4, align 8, !tbaa !93
  call void @_ZN4Luau7CodeGen3X6410emitReturnERNS1_18AssemblyBuilderX64ERNS0_13ModuleHelpersE(ptr noundef nonnull align 8 dereferenceable(252) %70, ptr noundef nonnull align 4 dereferenceable(56) %71)
  ret void
}