; Function Attrs: mustprogress uwtable
define dso_local void @_ZN4Luau7CodeGen3X6415assembleHelpersERNS1_18AssemblyBuilderX64ERNS0_13ModuleHelpersE(ptr noundef nonnull align 8 dereferenceable(252) %0, ptr noundef nonnull align 4 dereferenceable(56) %1) local_unnamed_addr #0 {
  %3 = getelementptr inbounds nuw i8, ptr %0, i64 80
  %4 = load i8, ptr %3, align 8, !tbaa !80, !range !81, !noundef !82
  %5 = trunc nuw i8 %4 to i1
  br i1 %5, label %6, label %7

6:                                                ; preds = %2
  tail call void (ptr, ptr, ...) @_ZN4Luau7CodeGen3X6418AssemblyBuilderX649logAppendEPKcz(ptr noundef nonnull align 8 dereferenceable(252) %0, ptr noundef nonnull @.str)
  br label %7

7:                                                ; preds = %6, %2
  %8 = getelementptr inbounds nuw i8, ptr %1, i64 24
  tail call void @_ZN4Luau7CodeGen3X6418AssemblyBuilderX648setLabelERNS0_5LabelE(ptr noundef nonnull align 8 dereferenceable(252) %0, ptr noundef nonnull align 4 dereferenceable(8) %8)
  tail call void @_ZN4Luau7CodeGen3X6419emitUpdatePcForExitERNS1_18AssemblyBuilderX64E(ptr noundef nonnull align 8 dereferenceable(252) %0)
  %9 = load i8, ptr %3, align 8, !tbaa !80, !range !81, !noundef !82
  %10 = trunc nuw i8 %9 to i1
  br i1 %10, label %11, label %12

11:                                               ; preds = %7
  tail call void (ptr, ptr, ...) @_ZN4Luau7CodeGen3X6418AssemblyBuilderX649logAppendEPKcz(ptr noundef nonnull align 8 dereferenceable(252) %0, ptr noundef nonnull @.str.1)
  br label %12

12:                                               ; preds = %11, %7
  %13 = getelementptr inbounds nuw i8, ptr %1, i64 16
  tail call void @_ZN4Luau7CodeGen3X6418AssemblyBuilderX648setLabelERNS0_5LabelE(ptr noundef nonnull align 8 dereferenceable(252) %0, ptr noundef nonnull align 4 dereferenceable(8) %13)
  tail call void @_ZN4Luau7CodeGen3X6419emitClearNativeFlagERNS1_18AssemblyBuilderX64E(ptr noundef nonnull align 8 dereferenceable(252) %0)
  %14 = load i8, ptr %3, align 8, !tbaa !80, !range !81, !noundef !82
  %15 = trunc nuw i8 %14 to i1
  br i1 %15, label %16, label %17

16:                                               ; preds = %12
  tail call void (ptr, ptr, ...) @_ZN4Luau7CodeGen3X6418AssemblyBuilderX649logAppendEPKcz(ptr noundef nonnull align 8 dereferenceable(252) %0, ptr noundef nonnull @.str.2)
  br label %17

17:                                               ; preds = %16, %12
  tail call void @_ZN4Luau7CodeGen3X6418AssemblyBuilderX648setLabelERNS0_5LabelE(ptr noundef nonnull align 8 dereferenceable(252) %0, ptr noundef nonnull align 4 dereferenceable(8) %1)
  tail call void @_ZN4Luau7CodeGen3X648emitExitERNS1_18AssemblyBuilderX64Eb(ptr noundef nonnull align 8 dereferenceable(252) %0, i1 noundef zeroext true)
  %18 = load i8, ptr %3, align 8, !tbaa !80, !range !81, !noundef !82
  %19 = trunc nuw i8 %18 to i1
  br i1 %19, label %20, label %21

20:                                               ; preds = %17
  tail call void (ptr, ptr, ...) @_ZN4Luau7CodeGen3X6418AssemblyBuilderX649logAppendEPKcz(ptr noundef nonnull align 8 dereferenceable(252) %0, ptr noundef nonnull @.str.3)
  br label %21

21:                                               ; preds = %20, %17
  %22 = getelementptr inbounds nuw i8, ptr %1, i64 8
  tail call void @_ZN4Luau7CodeGen3X6418AssemblyBuilderX648setLabelERNS0_5LabelE(ptr noundef nonnull align 8 dereferenceable(252) %0, ptr noundef nonnull align 4 dereferenceable(8) %22)
  tail call void @_ZN4Luau7CodeGen3X648emitExitERNS1_18AssemblyBuilderX64Eb(ptr noundef nonnull align 8 dereferenceable(252) %0, i1 noundef zeroext false)
  %23 = load i8, ptr %3, align 8, !tbaa !80, !range !81, !noundef !82
  %24 = trunc nuw i8 %23 to i1
  br i1 %24, label %25, label %26

25:                                               ; preds = %21
  tail call void (ptr, ptr, ...) @_ZN4Luau7CodeGen3X6418AssemblyBuilderX649logAppendEPKcz(ptr noundef nonnull align 8 dereferenceable(252) %0, ptr noundef nonnull @.str.4)
  br label %26

26:                                               ; preds = %25, %21
  %27 = getelementptr inbounds nuw i8, ptr %1, i64 40
  tail call void @_ZN4Luau7CodeGen3X6418AssemblyBuilderX648setLabelERNS0_5LabelE(ptr noundef nonnull align 8 dereferenceable(252) %0, ptr noundef nonnull align 4 dereferenceable(8) %27)
  tail call void @_ZN4Luau7CodeGen3X6413emitInterruptERNS1_18AssemblyBuilderX64E(ptr noundef nonnull align 8 dereferenceable(252) %0)
  %28 = load i8, ptr %3, align 8, !tbaa !80, !range !81, !noundef !82
  %29 = trunc nuw i8 %28 to i1
  br i1 %29, label %30, label %31

30:                                               ; preds = %26
  tail call void (ptr, ptr, ...) @_ZN4Luau7CodeGen3X6418AssemblyBuilderX649logAppendEPKcz(ptr noundef nonnull align 8 dereferenceable(252) %0, ptr noundef nonnull @.str.5)
  br label %31

31:                                               ; preds = %30, %26
  %32 = getelementptr inbounds nuw i8, ptr %1, i64 32
  tail call void @_ZN4Luau7CodeGen3X6418AssemblyBuilderX648setLabelERNS0_5LabelE(ptr noundef nonnull align 8 dereferenceable(252) %0, ptr noundef nonnull align 4 dereferenceable(8) %32)
  tail call void @_ZN4Luau7CodeGen3X6410emitReturnERNS1_18AssemblyBuilderX64ERNS0_13ModuleHelpersE(ptr noundef nonnull align 8 dereferenceable(252) %0, ptr noundef nonnull align 4 dereferenceable(56) %1)
  ret void
}